; Function Attrs: mustprogress nofree norecurse nosync nounwind willreturn memory(argmem: readwrite) uwtable
define hidden signext range(i8 0, 2) i8 @nfaExecMcClellan16_initCompressedState(ptr noundef readonly captures(none) %0, i64 noundef %1, ptr noundef writeonly captures(none) %2, i8 noundef zeroext %3) local_unnamed_addr #5 {
  %.not = icmp eq i64 %1, 0
  %.in.in.v = select i1 %.not, i64 72, i64 74
  %.in.in = getelementptr inbounds nuw i8, ptr %0, i64 %.in.in.v
  %.in10 = load i16, ptr %.in.in, align 2
  %5 = getelementptr inbounds nuw i8, ptr %0, i64 99
  %6 = load i8, ptr %5, align 1
  %.not11 = icmp eq i8 %6, 0
  br i1 %.not11, label %9, label %7

7:                                                ; preds = %4
  %8 = getelementptr inbounds nuw i8, ptr %2, i64 2
  store i16 0, ptr %8, align 1
  br label %9

9:                                                ; preds = %7, %4
  %.not12 = icmp eq i16 %.in10, 0
  br i1 %.not12, label %11, label %10

10:                                               ; preds = %9
  store i16 %.in10, ptr %2, align 1
  br label %11

11:                                               ; preds = %9, %10
  %.0 = phi i8 [ 1, %10 ], [ 0, %9 ]
  ret i8 %.0
}